target datalayout = "e-m:e-p270:32:32-p271:32:32-p272:64:64-i64:64-i128:128-f80:128-n8:16:32:64-S128"
target triple = "x86_64-pc-linux-gnu"

%struct.rb_id_table = type { i32, i32, i32, ptr }
%struct.rb_id_item = type { i32, i32, i64 }

; Function Attrs: inlinehint nounwind sspstrong uwtable
define internal void @ITEM_SET_KEY(ptr noundef %0, i32 noundef %1, i32 noundef %2) #4 {
  %4 = alloca ptr, align 8
  %5 = alloca i32, align 4
  %6 = alloca i32, align 4
  store ptr %0, ptr %4, align 8, !tbaa !61
  store i32 %1, ptr %5, align 4, !tbaa !21
  store i32 %2, ptr %6, align 4, !tbaa !21
  %7 = load i32, ptr %6, align 4, !tbaa !21
  %8 = load ptr, ptr %4, align 8, !tbaa !61
  %9 = getelementptr inbounds nuw %struct.rb_id_table, ptr %8, i32 0, i32 3
  %10 = load ptr, ptr %9, align 8, !tbaa !66
  %11 = load i32, ptr %5, align 4, !tbaa !21
  %12 = sext i32 %11 to i64
  %13 = getelementptr %struct.rb_id_item, ptr %10, i64 %12
  %14 = getelementptr inbounds nuw %struct.rb_id_item, ptr %13, i32 0, i32 0
  store i32 %7, ptr %14, align 8, !tbaa !74
  ret void
}

; Function Attrs: inlinehint nounwind sspstrong uwtable
define internal i64 @rb_id_serial_to_id(i32 noundef %0) #4 {
  %2 = alloca i64, align 8
  %3 = alloca i32, align 4
  %4 = alloca i64, align 8
  %5 = alloca i32, align 4
  store i32 %0, ptr %3, align 4, !tbaa !21
  %6 = load i32, ptr %3, align 4, !tbaa !21
  %7 = zext i32 %6 to i64
  %8 = icmp ugt i64 %7, 170
  br i1 %8, label %9, label %24

9:                                                ; preds = %1
  call void @llvm.lifetime.start.p0(i64 8, ptr %4) #24
  %10 = load i32, ptr %3, align 4, !tbaa !21
  %11 = call i64 @get_id_serial_entry(i32 noundef %10, i64 noundef 0, i32 noundef 1)
  store i64 %11, ptr %4, align 8, !tbaa !11
  %12 = load i64, ptr %4, align 8, !tbaa !11
  %13 = icmp ne i64 %12, 0
  br i1 %13, label %14, label %17

14:                                               ; preds = %9
  %15 = load i64, ptr %4, align 8, !tbaa !11
  %16 = call i64 @rb_sym2id(i64 noundef %15)
  store i64 %16, ptr %2, align 8
  store i32 1, ptr %5, align 4
  br label %23

17:                                               ; preds = %9
  %18 = load i32, ptr %3, align 4, !tbaa !21
  %19 = zext i32 %18 to i64
  %20 = shl i64 %19, 4
  %21 = or i64 %20, 14
  %22 = or i64 %21, 1
  store i64 %22, ptr %2, align 8
  store i32 1, ptr %5, align 4
  br label %23

23:                                               ; preds = %17, %14
  call void @llvm.lifetime.end.p0(i64 8, ptr %4) #24
  br label %27

24:                                               ; preds = %1
  %25 = load i32, ptr %3, align 4, !tbaa !21
  %26 = zext i32 %25 to i64
  store i64 %26, ptr %2, align 8
  br label %27

27:                                               ; preds = %24, %23
  %28 = load i64, ptr %2, align 8
  ret i64 %28
}

; Function Attrs: nounwind sspstrong uwtable
define internal i32 @hash_delete_index(ptr noundef %0, i32 noundef %1) #0 {
  %3 = alloca i32, align 4
  %4 = alloca ptr, align 8
  %5 = alloca i32, align 4
  store ptr %0, ptr %4, align 8, !tbaa !61
  store i32 %1, ptr %5, align 4, !tbaa !21
  %6 = load i32, ptr %5, align 4, !tbaa !21
  %7 = icmp sge i32 %6, 0
  br i1 %7, label %8, label %37

8:                                                ; preds = %2
  %9 = load ptr, ptr %4, align 8, !tbaa !61
  %10 = getelementptr inbounds nuw %struct.rb_id_table, ptr %9, i32 0, i32 3
  %11 = load ptr, ptr %10, align 8, !tbaa !66
  %12 = load i32, ptr %5, align 4, !tbaa !21
  %13 = sext i32 %12 to i64
  %14 = getelementptr %struct.rb_id_item, ptr %11, i64 %13
  %15 = getelementptr inbounds nuw %struct.rb_id_item, ptr %14, i32 0, i32 1
  %16 = load i32, ptr %15, align 4, !tbaa !75
  %17 = icmp ne i32 %16, 0
  br i1 %17, label %23, label %18

18:                                               ; preds = %8
  %19 = load ptr, ptr %4, align 8, !tbaa !61
  %20 = getelementptr inbounds nuw %struct.rb_id_table, ptr %19, i32 0, i32 2
  %21 = load i32, ptr %20, align 8, !tbaa !68
  %22 = add i32 %21, -1
  store i32 %22, ptr %20, align 8, !tbaa !68
  br label %23

23:                                               ; preds = %18, %8
  %24 = load ptr, ptr %4, align 8, !tbaa !61
  %25 = getelementptr inbounds nuw %struct.rb_id_table, ptr %24, i32 0, i32 1
  %26 = load i32, ptr %25, align 4, !tbaa !67
  %27 = add i32 %26, -1
  store i32 %27, ptr %25, align 4, !tbaa !67
  %28 = load ptr, ptr %4, align 8, !tbaa !61
  %29 = load i32, ptr %5, align 4, !tbaa !21
  call void @ITEM_SET_KEY(ptr noundef %28, i32 noundef %29, i32 noundef 0)
  %30 = load ptr, ptr %4, align 8, !tbaa !61
  %31 = getelementptr inbounds nuw %struct.rb_id_table, ptr %30, i32 0, i32 3
  %32 = load ptr, ptr %31, align 8, !tbaa !66
  %33 = load i32, ptr %5, align 4, !tbaa !21
  %34 = sext i32 %33 to i64
  %35 = getelementptr %struct.rb_id_item, ptr %32, i64 %34
  %36 = getelementptr inbounds nuw %struct.rb_id_item, ptr %35, i32 0, i32 2
  store i64 0, ptr %36, align 8, !tbaa !72
  store i32 1, ptr %3, align 4
  br label %38

37:                                               ; preds = %2
  store i32 0, ptr %3, align 4
  br label %38

38:                                               ; preds = %37, %23
  %39 = load i32, ptr %3, align 4
  ret i32 %39
}

; Function Attrs: inlinehint nounwind sspstrong uwtable
define internal i64 @key2id(i32 noundef %0) #4 {
  %2 = alloca i32, align 4
  store i32 %0, ptr %2, align 4, !tbaa !21
  %3 = load i32, ptr %2, align 4, !tbaa !21
  %4 = call i64 @rb_id_serial_to_id(i32 noundef %3)
  ret i64 %4
}

; Function Attrs: nounwind sspstrong uwtable
define hidden void @rb_id_table_foreach(ptr noundef %0, ptr noundef %1, ptr noundef %2) #0 {
  %4 = alloca ptr, align 8
  %5 = alloca ptr, align 8
  %6 = alloca ptr, align 8
  %7 = alloca i32, align 4
  %8 = alloca i32, align 4
  %9 = alloca i32, align 4
  %10 = alloca i32, align 4
  %11 = alloca i32, align 4
  store ptr %0, ptr %4, align 8, !tbaa !61
  store ptr %1, ptr %5, align 8, !tbaa !7
  store ptr %2, ptr %6, align 8, !tbaa !7
  call void @llvm.lifetime.start.p0(i64 4, ptr %7) #24
  call void @llvm.lifetime.start.p0(i64 4, ptr %8) #24
  %12 = load ptr, ptr %4, align 8, !tbaa !61
  %13 = getelementptr inbounds nuw %struct.rb_id_table, ptr %12, i32 0, i32 0
  %14 = load i32, ptr %13, align 8, !tbaa !63
  store i32 %14, ptr %8, align 4, !tbaa !21
  store i32 0, ptr %7, align 4, !tbaa !21
  br label %15

15:                                               ; preds = %67, %3
  %16 = load i32, ptr %7, align 4, !tbaa !21
  %17 = load i32, ptr %8, align 4, !tbaa !21
  %18 = icmp slt i32 %16, %17
  br i1 %18, label %19, label %70

19:                                               ; preds = %15
  %20 = load ptr, ptr %4, align 8, !tbaa !61
  %21 = getelementptr inbounds nuw %struct.rb_id_table, ptr %20, i32 0, i32 3
  %22 = load ptr, ptr %21, align 8, !tbaa !66
  %23 = load i32, ptr %7, align 4, !tbaa !21
  %24 = sext i32 %23 to i64
  %25 = getelementptr %struct.rb_id_item, ptr %22, i64 %24
  %26 = getelementptr inbounds nuw %struct.rb_id_item, ptr %25, i32 0, i32 0
  %27 = load i32, ptr %26, align 8, !tbaa !74
  %28 = icmp ne i32 %27, 0
  br i1 %28, label %29, label %66

29:                                               ; preds = %19
  call void @llvm.lifetime.start.p0(i64 4, ptr %9) #24
  %30 = load ptr, ptr %4, align 8, !tbaa !61
  %31 = getelementptr inbounds nuw %struct.rb_id_table, ptr %30, i32 0, i32 3
  %32 = load ptr, ptr %31, align 8, !tbaa !66
  %33 = load i32, ptr %7, align 4, !tbaa !21
  %34 = sext i32 %33 to i64
  %35 = getelementptr %struct.rb_id_item, ptr %32, i64 %34
  %36 = getelementptr inbounds nuw %struct.rb_id_item, ptr %35, i32 0, i32 0
  %37 = load i32, ptr %36, align 8, !tbaa !74
  store i32 %37, ptr %9, align 4, !tbaa !21
  call void @llvm.lifetime.start.p0(i64 4, ptr %10) #24
  %38 = load ptr, ptr %5, align 8, !tbaa !7
  %39 = load i32, ptr %9, align 4, !tbaa !21
  %40 = call i64 @key2id(i32 noundef %39)
  %41 = load ptr, ptr %4, align 8, !tbaa !61
  %42 = getelementptr inbounds nuw %struct.rb_id_table, ptr %41, i32 0, i32 3
  %43 = load ptr, ptr %42, align 8, !tbaa !66
  %44 = load i32, ptr %7, align 4, !tbaa !21
  %45 = sext i32 %44 to i64
  %46 = getelementptr %struct.rb_id_item, ptr %43, i64 %45
  %47 = getelementptr inbounds nuw %struct.rb_id_item, ptr %46, i32 0, i32 2
  %48 = load i64, ptr %47, align 8, !tbaa !72
  %49 = load ptr, ptr %6, align 8, !tbaa !7
  %50 = call i32 %38(i64 noundef %40, i64 noundef %48, ptr noundef %49)
  store i32 %50, ptr %10, align 4, !tbaa !21
  %51 = load i32, ptr %10, align 4, !tbaa !21
  %52 = icmp eq i32 %51, 2
  br i1 %52, label %53, label %57

53:                                               ; preds = %29
  %54 = load ptr, ptr %4, align 8, !tbaa !61
  %55 = load i32, ptr %7, align 4, !tbaa !21
  %56 = call i32 @hash_delete_index(ptr noundef %54, i32 noundef %55)
  br label %62

57:                                               ; preds = %29
  %58 = load i32, ptr %10, align 4, !tbaa !21
  %59 = icmp eq i32 %58, 1
  br i1 %59, label %60, label %61

60:                                               ; preds = %57
  store i32 1, ptr %11, align 4
  br label %63

61:                                               ; preds = %57
  br label %62

62:                                               ; preds = %61, %53
  store i32 0, ptr %11, align 4
  br label %63

63:                                               ; preds = %62, %60
  call void @llvm.lifetime.end.p0(i64 4, ptr %10) #24
  call void @llvm.lifetime.end.p0(i64 4, ptr %9) #24
  %64 = load i32, ptr %11, align 4
  switch i32 %64, label %71 [
    i32 0, label %65
  ]

65:                                               ; preds = %63
  br label %66

66:                                               ; preds = %65, %19
  br label %67

67:                                               ; preds = %66
  %68 = load i32, ptr %7, align 4, !tbaa !21
  %69 = add i32 %68, 1
  store i32 %69, ptr %7, align 4, !tbaa !21
  br label %15, !llvm.loop !77

70:                                               ; preds = %15
  store i32 0, ptr %11, align 4
  br label %71

71:                                               ; preds = %70, %63
  call void @llvm.lifetime.end.p0(i64 4, ptr %8) #24
  call void @llvm.lifetime.end.p0(i64 4, ptr %7) #24
  %72 = load i32, ptr %11, align 4
  switch i32 %72, label %74 [
    i32 0, label %73
    i32 1, label %73
  ]

73:                                               ; preds = %71, %71
  ret void

74:                                               ; preds = %71
  unreachable
}