; Function Attrs: nounwind sspstrong uwtable
define hidden void @rb_id_table_foreach(ptr noundef captures(none) %0, ptr noundef readonly captures(none) %1, ptr noundef %2) local_unnamed_addr #0 {
  %4 = load i32, ptr %0, align 8, !tbaa !82
  %5 = icmp sgt i32 %4, 0
  br i1 %5, label %.lr.ph, label %._crit_edge

.lr.ph:                                           ; preds = %3
  %6 = getelementptr inbounds nuw i8, ptr %0, i64 16
  %7 = getelementptr inbounds nuw i8, ptr %0, i64 8
  %8 = getelementptr inbounds nuw i8, ptr %0, i64 4
  %wide.trip.count = zext nneg i32 %4 to i64
  br label %9

9:                                                ; preds = %.lr.ph, %.critedge
  %indvars.iv = phi i64 [ 0, %.lr.ph ], [ %indvars.iv.next, %.critedge ]
  %10 = load ptr, ptr %6, align 8, !tbaa !85
  %11 = getelementptr %struct.rb_id_item, ptr %10, i64 %indvars.iv
  %12 = load i32, ptr %11, align 8, !tbaa !88
  %.not = icmp eq i32 %12, 0
  br i1 %.not, label %.critedge, label %13

13:                                               ; preds = %9
  %14 = zext i32 %12 to i64
  %15 = icmp ugt i32 %12, 170
  br i1 %15, label %16, label %key2id.exit

16:                                               ; preds = %13
  %17 = tail call fastcc i64 @get_id_serial_entry(i32 noundef range(i32 1, 0) %12, i32 noundef 1)
  %.not.i.i = icmp eq i64 %17, 0
  br i1 %.not.i.i, label %20, label %18

18:                                               ; preds = %16
  %19 = tail call i64 @rb_sym2id(i64 noundef %17)
  br label %key2id.exit

20:                                               ; preds = %16
  %21 = shl nuw nsw i64 %14, 4
  %22 = or disjoint i64 %21, 15
  br label %key2id.exit

key2id.exit:                                      ; preds = %13, %18, %20
  %.1.i.i = phi i64 [ %19, %18 ], [ %22, %20 ], [ %14, %13 ]
  %23 = load ptr, ptr %6, align 8, !tbaa !85
  %24 = getelementptr %struct.rb_id_item, ptr %23, i64 %indvars.iv, i32 2
  %25 = load i64, ptr %24, align 8, !tbaa !92
  %26 = tail call i32 %1(i64 noundef %.1.i.i, i64 noundef %25, ptr noundef %2) #19
  switch i32 %26, label %.critedge [
    i32 2, label %27
    i32 1, label %._crit_edge
  ]

27:                                               ; preds = %key2id.exit
  %28 = load ptr, ptr %6, align 8, !tbaa !85
  %29 = getelementptr %struct.rb_id_item, ptr %28, i64 %indvars.iv, i32 1
  %30 = load i32, ptr %29, align 4, !tbaa !90
  %.not.i = icmp eq i32 %30, 0
  br i1 %.not.i, label %31, label %34

31:                                               ; preds = %27
  %32 = load i32, ptr %7, align 8, !tbaa !87
  %33 = add i32 %32, -1
  store i32 %33, ptr %7, align 8, !tbaa !87
  br label %34

34:                                               ; preds = %31, %27
  %35 = load i32, ptr %8, align 4, !tbaa !86
  %36 = add i32 %35, -1
  store i32 %36, ptr %8, align 4, !tbaa !86
  %37 = getelementptr %struct.rb_id_item, ptr %28, i64 %indvars.iv
  store i32 0, ptr %37, align 8, !tbaa !88
  %38 = getelementptr %struct.rb_id_item, ptr %28, i64 %indvars.iv, i32 2
  store i64 0, ptr %38, align 8, !tbaa !92
  br label %.critedge

.critedge:                                        ; preds = %34, %key2id.exit, %9
  %indvars.iv.next = add nuw nsw i64 %indvars.iv, 1
  %exitcond.not = icmp eq i64 %indvars.iv.next, %wide.trip.count
  br i1 %exitcond.not, label %._crit_edge, label %9, !llvm.loop !96

._crit_edge:                                      ; preds = %key2id.exit, %.critedge, %3
  ret void
}